; Function Attrs: mustprogress uwtable
define hidden noundef zeroext i1 @_ZN4lean22is_runtime_scalar_typeERKNS_4nameE(ptr noundef nonnull readonly align 8 captures(none) dereferenceable(8) %0) local_unnamed_addr #0 {
  %2 = tail call noundef nonnull align 8 dereferenceable(8) ptr @_ZN4lean14get_uint8_nameEv()
  %3 = load ptr, ptr %0, align 8, !tbaa !3
  %4 = load ptr, ptr %2, align 8, !tbaa !3
  %5 = tail call zeroext i8 @lean_name_eq(ptr noundef %3, ptr noundef %4)
  %.not = icmp eq i8 %5, 0
  br i1 %.not, label %6, label %37

6:                                                ; preds = %1
  %7 = tail call noundef nonnull align 8 dereferenceable(8) ptr @_ZN4lean15get_uint16_nameEv()
  %8 = load ptr, ptr %0, align 8, !tbaa !3
  %9 = load ptr, ptr %7, align 8, !tbaa !3
  %10 = tail call zeroext i8 @lean_name_eq(ptr noundef %8, ptr noundef %9)
  %.not7 = icmp eq i8 %10, 0
  br i1 %.not7, label %11, label %37

11:                                               ; preds = %6
  %12 = tail call noundef nonnull align 8 dereferenceable(8) ptr @_ZN4lean15get_uint32_nameEv()
  %13 = load ptr, ptr %0, align 8, !tbaa !3
  %14 = load ptr, ptr %12, align 8, !tbaa !3
  %15 = tail call zeroext i8 @lean_name_eq(ptr noundef %13, ptr noundef %14)
  %.not8 = icmp eq i8 %15, 0
  br i1 %.not8, label %16, label %37

16:                                               ; preds = %11
  %17 = tail call noundef nonnull align 8 dereferenceable(8) ptr @_ZN4lean15get_uint64_nameEv()
  %18 = load ptr, ptr %0, align 8, !tbaa !3
  %19 = load ptr, ptr %17, align 8, !tbaa !3
  %20 = tail call zeroext i8 @lean_name_eq(ptr noundef %18, ptr noundef %19)
  %.not9 = icmp eq i8 %20, 0
  br i1 %.not9, label %21, label %37

21:                                               ; preds = %16
  %22 = tail call noundef nonnull align 8 dereferenceable(8) ptr @_ZN4lean14get_usize_nameEv()
  %23 = load ptr, ptr %0, align 8, !tbaa !3
  %24 = load ptr, ptr %22, align 8, !tbaa !3
  %25 = tail call zeroext i8 @lean_name_eq(ptr noundef %23, ptr noundef %24)
  %.not10 = icmp eq i8 %25, 0
  br i1 %.not10, label %26, label %37

26:                                               ; preds = %21
  %27 = tail call noundef nonnull align 8 dereferenceable(8) ptr @_ZN4lean14get_float_nameEv()
  %28 = load ptr, ptr %0, align 8, !tbaa !3
  %29 = load ptr, ptr %27, align 8, !tbaa !3
  %30 = tail call zeroext i8 @lean_name_eq(ptr noundef %28, ptr noundef %29)
  %.not11 = icmp eq i8 %30, 0
  br i1 %.not11, label %31, label %37

31:                                               ; preds = %26
  %32 = tail call noundef nonnull align 8 dereferenceable(8) ptr @_ZN4lean16get_float32_nameEv()
  %33 = load ptr, ptr %0, align 8, !tbaa !3
  %34 = load ptr, ptr %32, align 8, !tbaa !3
  %35 = tail call zeroext i8 @lean_name_eq(ptr noundef %33, ptr noundef %34)
  %36 = icmp ne i8 %35, 0
  br label %37

37:                                               ; preds = %31, %26, %21, %16, %11, %6, %1
  %38 = phi i1 [ true, %26 ], [ true, %21 ], [ true, %16 ], [ true, %11 ], [ true, %6 ], [ true, %1 ], [ %36, %31 ]
  ret i1 %38
}